target datalayout = "e-m:e-p270:32:32-p271:32:32-p272:64:64-i64:64-i128:128-f80:128-n8:16:32:64-S128"
target triple = "x86_64-pc-linux-gnu"

; Function Attrs: inlinehint nounwind uwtable
define internal void @set_errno(i32 noundef %0) #1 {
  %2 = alloca i32, align 4
  store i32 %0, ptr %2, align 4, !tbaa !9
  %3 = load i32, ptr %2, align 4, !tbaa !9
  %4 = call ptr @__errno_location() #11
  store i32 %3, ptr %4, align 4, !tbaa !9
  ret void
}

; Function Attrs: nounwind uwtable
define i64 @duckdb_je_malloc_strtoumax(ptr noalias noundef %0, ptr noalias noundef %1, i32 noundef %2) #0 {
  %4 = alloca i64, align 8
  %5 = alloca ptr, align 8
  %6 = alloca ptr, align 8
  %7 = alloca i32, align 4
  %8 = alloca i64, align 8
  %9 = alloca i64, align 8
  %10 = alloca i32, align 4
  %11 = alloca i8, align 1
  %12 = alloca ptr, align 8
  %13 = alloca ptr, align 8
  %14 = alloca i64, align 8
  %15 = alloca i32, align 4
  store ptr %0, ptr %5, align 8, !tbaa !7
  store ptr %1, ptr %6, align 8, !tbaa !13
  store i32 %2, ptr %7, align 4, !tbaa !9
  call void @llvm.lifetime.start.p0(i64 8, ptr %8) #10
  call void @llvm.lifetime.start.p0(i64 8, ptr %9) #10
  call void @llvm.lifetime.start.p0(i64 4, ptr %10) #10
  call void @llvm.lifetime.start.p0(i64 1, ptr %11) #10
  call void @llvm.lifetime.start.p0(i64 8, ptr %12) #10
  call void @llvm.lifetime.start.p0(i64 8, ptr %13) #10
  %16 = load ptr, ptr %5, align 8, !tbaa !7
  store ptr %16, ptr %12, align 8, !tbaa !7
  %17 = load i32, ptr %7, align 4, !tbaa !9
  %18 = icmp slt i32 %17, 0
  br i1 %18, label %25, label %19

19:                                               ; preds = %3
  %20 = load i32, ptr %7, align 4, !tbaa !9
  %21 = icmp eq i32 %20, 1
  br i1 %21, label %25, label %22

22:                                               ; preds = %19
  %23 = load i32, ptr %7, align 4, !tbaa !9
  %24 = icmp sgt i32 %23, 36
  br i1 %24, label %25, label %27

25:                                               ; preds = %22, %19, %3
  %26 = load ptr, ptr %12, align 8, !tbaa !7
  store ptr %26, ptr %13, align 8, !tbaa !7
  call void @set_errno(i32 noundef 22)
  store i64 -1, ptr %8, align 8, !tbaa !11
  br label %186

27:                                               ; preds = %22
  %28 = load i32, ptr %7, align 4, !tbaa !9
  store i32 %28, ptr %10, align 4, !tbaa !9
  store i8 0, ptr %11, align 1, !tbaa !15
  br label %29

29:                                               ; preds = %42, %27
  br label %30

30:                                               ; preds = %29
  %31 = load ptr, ptr %12, align 8, !tbaa !7
  %32 = load i8, ptr %31, align 1, !tbaa !17
  %33 = sext i8 %32 to i32
  switch i32 %33, label %41 [
    i32 9, label %34
    i32 10, label %34
    i32 11, label %34
    i32 12, label %34
    i32 13, label %34
    i32 32, label %34
    i32 45, label %37
    i32 43, label %38
  ]

34:                                               ; preds = %30, %30, %30, %30, %30, %30
  %35 = load ptr, ptr %12, align 8, !tbaa !7
  %36 = getelementptr inbounds nuw i8, ptr %35, i32 1
  store ptr %36, ptr %12, align 8, !tbaa !7
  br label %42

37:                                               ; preds = %30
  store i8 1, ptr %11, align 1, !tbaa !15
  br label %38

38:                                               ; preds = %30, %37
  %39 = load ptr, ptr %12, align 8, !tbaa !7
  %40 = getelementptr inbounds nuw i8, ptr %39, i32 1
  store ptr %40, ptr %12, align 8, !tbaa !7
  br label %41

41:                                               ; preds = %30, %38
  br label %43

42:                                               ; preds = %34
  br label %29

43:                                               ; preds = %41
  %44 = load ptr, ptr %12, align 8, !tbaa !7
  store ptr %44, ptr %13, align 8, !tbaa !7
  %45 = load ptr, ptr %12, align 8, !tbaa !7
  %46 = load i8, ptr %45, align 1, !tbaa !17
  %47 = sext i8 %46 to i32
  %48 = icmp eq i32 %47, 48
  br i1 %48, label %49, label %87

49:                                               ; preds = %43
  %50 = load ptr, ptr %12, align 8, !tbaa !7
  %51 = getelementptr inbounds i8, ptr %50, i64 1
  %52 = load i8, ptr %51, align 1, !tbaa !17
  %53 = sext i8 %52 to i32
  switch i32 %53, label %83 [
    i32 48, label %54
    i32 49, label %54
    i32 50, label %54
    i32 51, label %54
    i32 52, label %54
    i32 53, label %54
    i32 54, label %54
    i32 55, label %54
    i32 88, label %65
    i32 120, label %65
  ]

54:                                               ; preds = %49, %49, %49, %49, %49, %49, %49, %49
  %55 = load i32, ptr %10, align 4, !tbaa !9
  %56 = icmp eq i32 %55, 0
  br i1 %56, label %57, label %58

57:                                               ; preds = %54
  store i32 8, ptr %10, align 4, !tbaa !9
  br label %58

58:                                               ; preds = %57, %54
  %59 = load i32, ptr %10, align 4, !tbaa !9
  %60 = icmp eq i32 %59, 8
  br i1 %60, label %61, label %64

61:                                               ; preds = %58
  %62 = load ptr, ptr %12, align 8, !tbaa !7
  %63 = getelementptr inbounds nuw i8, ptr %62, i32 1
  store ptr %63, ptr %12, align 8, !tbaa !7
  br label %64

64:                                               ; preds = %61, %58
  br label %86

65:                                               ; preds = %49, %49
  %66 = load ptr, ptr %12, align 8, !tbaa !7
  %67 = getelementptr inbounds i8, ptr %66, i64 2
  %68 = load i8, ptr %67, align 1, !tbaa !17
  %69 = sext i8 %68 to i32
  switch i32 %69, label %81 [
    i32 48, label %70
    i32 49, label %70
    i32 50, label %70
    i32 51, label %70
    i32 52, label %70
    i32 53, label %70
    i32 54, label %70
    i32 55, label %70
    i32 56, label %70
    i32 57, label %70
    i32 65, label %70
    i32 66, label %70
    i32 67, label %70
    i32 68, label %70
    i32 69, label %70
    i32 70, label %70
    i32 97, label %70
    i32 98, label %70
    i32 99, label %70
    i32 100, label %70
    i32 101, label %70
    i32 102, label %70
  ]

70:                                               ; preds = %65, %65, %65, %65, %65, %65, %65, %65, %65, %65, %65, %65, %65, %65, %65, %65, %65, %65, %65, %65, %65, %65
  %71 = load i32, ptr %10, align 4, !tbaa !9
  %72 = icmp eq i32 %71, 0
  br i1 %72, label %73, label %74

73:                                               ; preds = %70
  store i32 16, ptr %10, align 4, !tbaa !9
  br label %74

74:                                               ; preds = %73, %70
  %75 = load i32, ptr %10, align 4, !tbaa !9
  %76 = icmp eq i32 %75, 16
  br i1 %76, label %77, label %80

77:                                               ; preds = %74
  %78 = load ptr, ptr %12, align 8, !tbaa !7
  %79 = getelementptr inbounds i8, ptr %78, i64 2
  store ptr %79, ptr %12, align 8, !tbaa !7
  br label %80

80:                                               ; preds = %77, %74
  br label %82

81:                                               ; preds = %65
  br label %82

82:                                               ; preds = %81, %80
  br label %86

83:                                               ; preds = %49
  %84 = load ptr, ptr %12, align 8, !tbaa !7
  %85 = getelementptr inbounds nuw i8, ptr %84, i32 1
  store ptr %85, ptr %12, align 8, !tbaa !7
  store i64 0, ptr %8, align 8, !tbaa !11
  br label %186

86:                                               ; preds = %82, %64
  br label %87

87:                                               ; preds = %86, %43
  %88 = load i32, ptr %10, align 4, !tbaa !9
  %89 = icmp eq i32 %88, 0
  br i1 %89, label %90, label %91

90:                                               ; preds = %87
  store i32 10, ptr %10, align 4, !tbaa !9
  br label %91

91:                                               ; preds = %90, %87
  store i64 0, ptr %8, align 8, !tbaa !11
  br label %92

92:                                               ; preds = %173, %91
  %93 = load ptr, ptr %12, align 8, !tbaa !7
  %94 = load i8, ptr %93, align 1, !tbaa !17
  %95 = sext i8 %94 to i32
  %96 = icmp sge i32 %95, 48
  br i1 %96, label %97, label %111

97:                                               ; preds = %92
  %98 = load ptr, ptr %12, align 8, !tbaa !7
  %99 = load i8, ptr %98, align 1, !tbaa !17
  %100 = sext i8 %99 to i32
  %101 = icmp sle i32 %100, 57
  br i1 %101, label %102, label %111

102:                                              ; preds = %97
  %103 = load ptr, ptr %12, align 8, !tbaa !7
  %104 = load i8, ptr %103, align 1, !tbaa !17
  %105 = sext i8 %104 to i32
  %106 = sub nsw i32 %105, 48
  %107 = sext i32 %106 to i64
  store i64 %107, ptr %9, align 8, !tbaa !11
  %108 = load i32, ptr %10, align 4, !tbaa !9
  %109 = zext i32 %108 to i64
  %110 = icmp ult i64 %107, %109
  br i1 %110, label %153, label %111

111:                                              ; preds = %102, %97, %92
  %112 = load ptr, ptr %12, align 8, !tbaa !7
  %113 = load i8, ptr %112, align 1, !tbaa !17
  %114 = sext i8 %113 to i32
  %115 = icmp sge i32 %114, 65
  br i1 %115, label %116, label %131

116:                                              ; preds = %111
  %117 = load ptr, ptr %12, align 8, !tbaa !7
  %118 = load i8, ptr %117, align 1, !tbaa !17
  %119 = sext i8 %118 to i32
  %120 = icmp sle i32 %119, 90
  br i1 %120, label %121, label %131

121:                                              ; preds = %116
  %122 = load ptr, ptr %12, align 8, !tbaa !7
  %123 = load i8, ptr %122, align 1, !tbaa !17
  %124 = sext i8 %123 to i32
  %125 = add nsw i32 10, %124
  %126 = sub nsw i32 %125, 65
  %127 = sext i32 %126 to i64
  store i64 %127, ptr %9, align 8, !tbaa !11
  %128 = load i32, ptr %10, align 4, !tbaa !9
  %129 = zext i32 %128 to i64
  %130 = icmp ult i64 %127, %129
  br i1 %130, label %153, label %131

131:                                              ; preds = %121, %116, %111
  %132 = load ptr, ptr %12, align 8, !tbaa !7
  %133 = load i8, ptr %132, align 1, !tbaa !17
  %134 = sext i8 %133 to i32
  %135 = icmp sge i32 %134, 97
  br i1 %135, label %136, label %151

136:                                              ; preds = %131
  %137 = load ptr, ptr %12, align 8, !tbaa !7
  %138 = load i8, ptr %137, align 1, !tbaa !17
  %139 = sext i8 %138 to i32
  %140 = icmp sle i32 %139, 122
  br i1 %140, label %141, label %151

141:                                              ; preds = %136
  %142 = load ptr, ptr %12, align 8, !tbaa !7
  %143 = load i8, ptr %142, align 1, !tbaa !17
  %144 = sext i8 %143 to i32
  %145 = add nsw i32 10, %144
  %146 = sub nsw i32 %145, 97
  %147 = sext i32 %146 to i64
  store i64 %147, ptr %9, align 8, !tbaa !11
  %148 = load i32, ptr %10, align 4, !tbaa !9
  %149 = zext i32 %148 to i64
  %150 = icmp ult i64 %147, %149
  br label %151

151:                                              ; preds = %141, %136, %131
  %152 = phi i1 [ false, %136 ], [ false, %131 ], [ %150, %141 ]
  br label %153

153:                                              ; preds = %151, %121, %102
  %154 = phi i1 [ true, %121 ], [ true, %102 ], [ %152, %151 ]
  br i1 %154, label %155, label %174

155:                                              ; preds = %153
  call void @llvm.lifetime.start.p0(i64 8, ptr %14) #10
  %156 = load i64, ptr %8, align 8, !tbaa !11
  store i64 %156, ptr %14, align 8, !tbaa !11
  %157 = load i32, ptr %10, align 4, !tbaa !9
  %158 = zext i32 %157 to i64
  %159 = load i64, ptr %8, align 8, !tbaa !11
  %160 = mul i64 %159, %158
  store i64 %160, ptr %8, align 8, !tbaa !11
  %161 = load i64, ptr %9, align 8, !tbaa !11
  %162 = load i64, ptr %8, align 8, !tbaa !11
  %163 = add i64 %162, %161
  store i64 %163, ptr %8, align 8, !tbaa !11
  %164 = load i64, ptr %8, align 8, !tbaa !11
  %165 = load i64, ptr %14, align 8, !tbaa !11
  %166 = icmp ult i64 %164, %165
  br i1 %166, label %167, label %168

167:                                              ; preds = %155
  call void @set_errno(i32 noundef 34)
  store i64 -1, ptr %8, align 8, !tbaa !11
  store i32 2, ptr %15, align 4
  br label %171

168:                                              ; preds = %155
  %169 = load ptr, ptr %12, align 8, !tbaa !7
  %170 = getelementptr inbounds nuw i8, ptr %169, i32 1
  store ptr %170, ptr %12, align 8, !tbaa !7
  store i32 0, ptr %15, align 4
  br label %171

171:                                              ; preds = %167, %168
  call void @llvm.lifetime.end.p0(i64 8, ptr %14) #10
  %172 = load i32, ptr %15, align 4
  switch i32 %172, label %202 [
    i32 0, label %173
    i32 2, label %186
  ]

173:                                              ; preds = %171
  br label %92

174:                                              ; preds = %153
  %175 = load i8, ptr %11, align 1, !tbaa !15, !range !18, !noundef !19
  %176 = trunc i8 %175 to i1
  br i1 %176, label %177, label %180

177:                                              ; preds = %174
  %178 = load i64, ptr %8, align 8, !tbaa !11
  %179 = sub nsw i64 0, %178
  store i64 %179, ptr %8, align 8, !tbaa !11
  br label %180

180:                                              ; preds = %177, %174
  %181 = load ptr, ptr %12, align 8, !tbaa !7
  %182 = load ptr, ptr %13, align 8, !tbaa !7
  %183 = icmp eq ptr %181, %182
  br i1 %183, label %184, label %185

184:                                              ; preds = %180
  call void @set_errno(i32 noundef 22)
  store i64 -1, ptr %8, align 8, !tbaa !11
  br label %186

185:                                              ; preds = %180
  br label %186

186:                                              ; preds = %185, %171, %184, %83, %25
  %187 = load ptr, ptr %6, align 8, !tbaa !13
  %188 = icmp ne ptr %187, null
  br i1 %188, label %189, label %200

189:                                              ; preds = %186
  %190 = load ptr, ptr %12, align 8, !tbaa !7
  %191 = load ptr, ptr %13, align 8, !tbaa !7
  %192 = icmp eq ptr %190, %191
  br i1 %192, label %193, label %196

193:                                              ; preds = %189
  %194 = load ptr, ptr %5, align 8, !tbaa !7
  %195 = load ptr, ptr %6, align 8, !tbaa !13
  store ptr %194, ptr %195, align 8, !tbaa !7
  br label %199

196:                                              ; preds = %189
  %197 = load ptr, ptr %12, align 8, !tbaa !7
  %198 = load ptr, ptr %6, align 8, !tbaa !13
  store ptr %197, ptr %198, align 8, !tbaa !7
  br label %199

199:                                              ; preds = %196, %193
  br label %200

200:                                              ; preds = %199, %186
  %201 = load i64, ptr %8, align 8, !tbaa !11
  store i64 %201, ptr %4, align 8
  store i32 1, ptr %15, align 4
  br label %202

202:                                              ; preds = %200, %171
  call void @llvm.lifetime.end.p0(i64 8, ptr %13) #10
  call void @llvm.lifetime.end.p0(i64 8, ptr %12) #10
  call void @llvm.lifetime.end.p0(i64 1, ptr %11) #10
  call void @llvm.lifetime.end.p0(i64 4, ptr %10) #10
  call void @llvm.lifetime.end.p0(i64 8, ptr %9) #10
  call void @llvm.lifetime.end.p0(i64 8, ptr %8) #10
  %203 = load i64, ptr %4, align 8
  ret i64 %203
}